; Function Attrs: mustprogress nounwind uwtable
define dso_local void @_ZN4node9HistogramC2ERKNS0_7OptionsE(ptr noundef nonnull align 8 dereferenceable(80) %this, ptr nocapture noundef nonnull readonly align 8 dereferenceable(20) %options) unnamed_addr #3 align 2 {
entry:
  %histogram = alloca ptr, align 8
  store ptr getelementptr inbounds ({ [10 x ptr] }, ptr @_ZTVN4node9HistogramE, i64 0, i32 0, i64 2), ptr %this, align 8
  %histogram_ = getelementptr inbounds i8, ptr %this, i64 8
  %mutex_ = getelementptr inbounds i8, ptr %this, i64 40
  tail call void @llvm.memset.p0.i64(ptr noundef nonnull align 8 dereferenceable(32) %histogram_, i8 0, i64 32, i1 false)
  %call.i.i = tail call noundef i32 @uv_mutex_init(ptr noundef nonnull %mutex_) #15
  %cmp.not.i = icmp eq i32 %call.i.i, 0
  br i1 %cmp.not.i, label %_ZN4node9MutexBaseINS_16LibuvMutexTraitsEEC2Ev.exit, label %do.body5.i

do.body5.i:                                       ; preds = %entry
  tail call void @_ZN4node6AssertERKNS_13AssertionInfoE(ptr noundef nonnull align 8 dereferenceable(24) @_ZZN4node9MutexBaseINS_16LibuvMutexTraitsEEC1EvE4args) #15
  tail call void @abort() #16
  unreachable

_ZN4node9MutexBaseINS_16LibuvMutexTraitsEEC2Ev.exit: ; preds = %entry
  %0 = load i64, ptr %options, align 8
  %highest = getelementptr inbounds i8, ptr %options, i64 8
  %1 = load i64, ptr %highest, align 8
  %figures = getelementptr inbounds i8, ptr %options, i64 16
  %2 = load i32, ptr %figures, align 8
  %call = call i32 @hdr_init(i64 noundef %0, i64 noundef %1, i32 noundef %2, ptr noundef nonnull %histogram) #15
  %cmp.not = icmp eq i32 %call, 0
  br i1 %cmp.not, label %do.end5, label %do.body4

do.body4:                                         ; preds = %_ZN4node9MutexBaseINS_16LibuvMutexTraitsEEC2Ev.exit
  call void @_ZN4node6AssertERKNS_13AssertionInfoE(ptr noundef nonnull align 8 dereferenceable(24) @_ZZN4node9HistogramC1ERKNS0_7OptionsEE4args) #15
  call void @abort() #16
  unreachable

do.end5:                                          ; preds = %_ZN4node9MutexBaseINS_16LibuvMutexTraitsEEC2Ev.exit
  %3 = load ptr, ptr %histogram, align 8
  %4 = load ptr, ptr %histogram_, align 8
  store ptr %3, ptr %histogram_, align 8
  %tobool.not.i.i = icmp eq ptr %4, null
  br i1 %tobool.not.i.i, label %_ZNSt10unique_ptrI13hdr_histogramN4node15FunctionDeleterIS0_XadL_Z9hdr_closeEEEEE5resetEPS0_.exit, label %if.then.i.i

if.then.i.i:                                      ; preds = %do.end5
  call void @hdr_close(ptr noundef nonnull %4) #15
  br label %_ZNSt10unique_ptrI13hdr_histogramN4node15FunctionDeleterIS0_XadL_Z9hdr_closeEEEEE5resetEPS0_.exit

_ZNSt10unique_ptrI13hdr_histogramN4node15FunctionDeleterIS0_XadL_Z9hdr_closeEEEEE5resetEPS0_.exit: ; preds = %do.end5, %if.then.i.i
  ret void
}